target datalayout = "e-m:e-p270:32:32-p271:32:32-p272:64:64-i64:64-i128:128-f80:128-n8:16:32:64-S128"
target triple = "x86_64-pc-linux-gnu"

%"class.casadi::Importer" = type { %"class.casadi::SharedObject" }
%"class.casadi::SharedObject" = type { ptr }

@_ZN6casadi8ImporterC1Ev = unnamed_addr alias void (ptr), ptr @_ZN6casadi8ImporterC2Ev

; Function Attrs: mustprogress nounwind uwtable
define linkonce_odr hidden void @_ZN6casadi8ImporterD2Ev(ptr noundef nonnull align 8 dereferenceable(8) %0) unnamed_addr #5 comdat align 2 {
  %2 = alloca ptr, align 8
  store ptr %0, ptr %2, align 8
  %3 = load ptr, ptr %2, align 8
  call void @_ZN6casadi12SharedObjectD2Ev(ptr noundef nonnull align 8 dereferenceable(8) %3) #3
  ret void
}

; Function Attrs: mustprogress uwtable
define noundef ptr @_ZN6casadi8ImporterptEv(ptr noundef nonnull align 8 dereferenceable(8) %0) #4 align 2 {
  %2 = alloca ptr, align 8
  store ptr %0, ptr %2, align 8
  %3 = load ptr, ptr %2, align 8
  %4 = call noundef ptr @_ZNK6casadi12SharedObjectptEv(ptr noundef nonnull align 8 dereferenceable(8) %3)
  ret ptr %4
}

; Function Attrs: mustprogress uwtable
define void @_ZN6casadi8Importer6createEPNS_16ImporterInternalE(ptr dead_on_unwind noalias writable sret(%"class.casadi::Importer") align 8 %0, ptr noundef %1) #4 align 2 personality ptr @__gxx_personality_v0 {
  %3 = alloca ptr, align 8
  %4 = alloca ptr, align 8
  %5 = alloca i1, align 1
  %6 = alloca ptr, align 8
  %7 = alloca i32, align 4
  store ptr %0, ptr %3, align 8
  store ptr %1, ptr %4, align 8
  store i1 false, ptr %5, align 1
  call void @_ZN6casadi8ImporterC1Ev(ptr noundef nonnull align 8 dereferenceable(8) %0)
  %8 = load ptr, ptr %4, align 8
  invoke void @_ZN6casadi12SharedObject3ownEPNS_20SharedObjectInternalE(ptr noundef nonnull align 8 dereferenceable(8) %0, ptr noundef %8)
          to label %9 unwind label %11

9:                                                ; preds = %2
  store i1 true, ptr %5, align 1
  %10 = load i1, ptr %5, align 1
  br i1 %10, label %16, label %15

11:                                               ; preds = %2
  %12 = landingpad { ptr, i32 }
          cleanup
  %13 = extractvalue { ptr, i32 } %12, 0
  store ptr %13, ptr %6, align 8
  %14 = extractvalue { ptr, i32 } %12, 1
  store i32 %14, ptr %7, align 4
  call void @_ZN6casadi8ImporterD2Ev(ptr noundef nonnull align 8 dereferenceable(8) %0) #3
  br label %17

15:                                               ; preds = %9
  call void @_ZN6casadi8ImporterD2Ev(ptr noundef nonnull align 8 dereferenceable(8) %0) #3
  br label %16

16:                                               ; preds = %15, %9
  ret void

17:                                               ; preds = %11
  %18 = load ptr, ptr %6, align 8
  %19 = load i32, ptr %7, align 4
  %20 = insertvalue { ptr, i32 } poison, ptr %18, 0
  %21 = insertvalue { ptr, i32 } %20, i32 %19, 1
  resume { ptr, i32 } %21
}

; Function Attrs: mustprogress uwtable
define void @_ZN6casadi8Importer6createEPNS_16ImporterInternalERKSt3mapINSt7__cxx1112basic_stringIcSt11char_traitsIcESaIcEEENS_11GenericTypeESt4lessIS9_ESaISt4pairIKS9_SA_EEE(ptr dead_on_unwind noalias writable sret(%"class.casadi::Importer") align 8 %0, ptr noundef %1, ptr noundef nonnull align 8 dereferenceable(48) %2) #4 align 2 personality ptr @__gxx_personality_v0 {
  %4 = alloca ptr, align 8
  %5 = alloca ptr, align 8
  %6 = alloca ptr, align 8
  %7 = alloca i1, align 1
  %8 = alloca ptr, align 8
  %9 = alloca i32, align 4
  store ptr %0, ptr %4, align 8
  store ptr %1, ptr %5, align 8
  store ptr %2, ptr %6, align 8
  store i1 false, ptr %7, align 1
  %10 = load ptr, ptr %5, align 8
  call void @_ZN6casadi8Importer6createEPNS_16ImporterInternalE(ptr dead_on_unwind writable sret(%"class.casadi::Importer") align 8 %0, ptr noundef %10)
  %11 = invoke noundef ptr @_ZN6casadi8ImporterptEv(ptr noundef nonnull align 8 dereferenceable(8) %0)
          to label %12 unwind label %16

12:                                               ; preds = %3
  %13 = load ptr, ptr %6, align 8
  invoke void @_ZN6casadi16ImporterInternal9constructERKSt3mapINSt7__cxx1112basic_stringIcSt11char_traitsIcESaIcEEENS_11GenericTypeESt4lessIS7_ESaISt4pairIKS7_S8_EEE(ptr noundef nonnull align 8 dereferenceable(161) %11, ptr noundef nonnull align 8 dereferenceable(48) %13)
          to label %14 unwind label %16

14:                                               ; preds = %12
  store i1 true, ptr %7, align 1
  %15 = load i1, ptr %7, align 1
  br i1 %15, label %21, label %20

16:                                               ; preds = %12, %3
  %17 = landingpad { ptr, i32 }
          cleanup
  %18 = extractvalue { ptr, i32 } %17, 0
  store ptr %18, ptr %8, align 8
  %19 = extractvalue { ptr, i32 } %17, 1
  store i32 %19, ptr %9, align 4
  call void @_ZN6casadi8ImporterD2Ev(ptr noundef nonnull align 8 dereferenceable(8) %0) #3
  br label %22

20:                                               ; preds = %14
  call void @_ZN6casadi8ImporterD2Ev(ptr noundef nonnull align 8 dereferenceable(8) %0) #3
  br label %21

21:                                               ; preds = %20, %14
  ret void

22:                                               ; preds = %16
  %23 = load ptr, ptr %8, align 8
  %24 = load i32, ptr %9, align 4
  %25 = insertvalue { ptr, i32 } poison, ptr %23, 0
  %26 = insertvalue { ptr, i32 } %25, i32 %24, 1
  resume { ptr, i32 } %26
}