; Function Attrs: mustprogress uwtable
define void @_ZN6casadi8Importer6createEPNS_16ImporterInternalERKSt3mapINSt7__cxx1112basic_stringIcSt11char_traitsIcESaIcEEENS_11GenericTypeESt4lessIS9_ESaISt4pairIKS9_SA_EEE(ptr dead_on_unwind noalias writable sret(%"class.casadi::Importer") align 8 %0, ptr noundef %1, ptr noundef nonnull align 8 dereferenceable(48) %2) local_unnamed_addr #3 align 2 personality ptr @__gxx_personality_v0 {
  tail call void @_ZN6casadi8ImporterC1Ev(ptr noundef nonnull align 8 dereferenceable(8) %0)
  invoke void @_ZN6casadi12SharedObject3ownEPNS_20SharedObjectInternalE(ptr noundef nonnull align 8 dereferenceable(8) %0, ptr noundef %1)
          to label %_ZN6casadi8Importer6createEPNS_16ImporterInternalE.exit unwind label %4

common.resume:                                    ; preds = %7, %4
  %common.resume.op = phi { ptr, i32 } [ %5, %4 ], [ %8, %7 ]
  tail call void @_ZN6casadi12SharedObjectD2Ev(ptr noundef nonnull align 8 dereferenceable(8) %0) #17
  resume { ptr, i32 } %common.resume.op

4:                                                ; preds = %3
  %5 = landingpad { ptr, i32 }
          cleanup
  br label %common.resume

_ZN6casadi8Importer6createEPNS_16ImporterInternalE.exit: ; preds = %3
  %6 = invoke noundef ptr @_ZNK6casadi12SharedObjectptEv(ptr noundef nonnull align 8 dereferenceable(8) %0)
          to label %_ZN6casadi8ImporterptEv.exit unwind label %7

_ZN6casadi8ImporterptEv.exit:                     ; preds = %_ZN6casadi8Importer6createEPNS_16ImporterInternalE.exit
  invoke void @_ZN6casadi16ImporterInternal9constructERKSt3mapINSt7__cxx1112basic_stringIcSt11char_traitsIcESaIcEEENS_11GenericTypeESt4lessIS7_ESaISt4pairIKS7_S8_EEE(ptr noundef nonnull align 8 dereferenceable(161) %6, ptr noundef nonnull align 8 dereferenceable(48) %2)
          to label %9 unwind label %7

7:                                                ; preds = %_ZN6casadi8Importer6createEPNS_16ImporterInternalE.exit, %_ZN6casadi8ImporterptEv.exit
  %8 = landingpad { ptr, i32 }
          cleanup
  br label %common.resume

9:                                                ; preds = %_ZN6casadi8ImporterptEv.exit
  ret void
}